; Function Attrs: nounwind uwtable
define range(i32 0, 2) i32 @test_int64_t_lt(ptr noundef %0, i32 noundef %1, ptr noundef %2, ptr noundef %3, i64 noundef %4, i64 noundef %5) local_unnamed_addr #0 {
  %7 = icmp slt i64 %4, %5
  br i1 %7, label %9, label %8

8:                                                ; preds = %6
  tail call void (ptr, ptr, i32, ptr, ptr, ptr, ptr, ptr, ...) @test_fail_message(ptr poison, ptr noundef %0, i32 noundef %1, ptr noundef nonnull @.str.28, ptr noundef %2, ptr noundef %3, ptr noundef nonnull @.str.15, ptr noundef nonnull @.str.29, i64 noundef %4, i64 noundef %5)
  br label %9

9:                                                ; preds = %6, %8
  %.0 = phi i32 [ 0, %8 ], [ 1, %6 ]
  ret i32 %.0
}